
program.elf:     file format elf32-tradlittlemips


Disassembly of section .bootrom:

9fc00000 <__reset_vector>:
9fc00000:	40804800 	mtc0	zero,c0_count

9fc00004 <init_cp0>:
9fc00004:	3c030040 	lui	v1,0x40
9fc00008:	34630004 	ori	v1,v1,0x4
9fc0000c:	40836000 	mtc0	v1,c0_status
9fc00010:	40806800 	mtc0	zero,c0_cause
9fc00014:	40805800 	mtc0	zero,c0_compare

9fc00018 <init_tlb>:
9fc00018:	40038000 	mfc0	v1,c0_config
9fc0001c:	7c6311c0 	ext	v1,v1,0x7,0x3
9fc00020:	24070001 	li	a3,1
9fc00024:	1467000e 	bne	v1,a3,9fc00060 <init_icache>
9fc00028:	40028001 	mfc0	v0,c0_config1
9fc0002c:	7c432e40 	ext	v1,v0,0x19,0x6
9fc00030:	40801000 	mtc0	zero,c0_entrylo0
9fc00034:	40801800 	mtc0	zero,c0_entrylo1
9fc00038:	40802800 	mtc0	zero,c0_pagemask
9fc0003c:	40803000 	mtc0	zero,c0_wired
9fc00040:	3c048000 	lui	a0,0x8000

9fc00044 <next_tlb_entry>:
9fc00044:	40830000 	mtc0	v1,c0_index
9fc00048:	40845000 	mtc0	a0,c0_entryhi
9fc0004c:	000000c0 	ehb
9fc00050:	42000002 	tlbwi
9fc00054:	20844000 	addi	a0,a0,16384
9fc00058:	1460fffa 	bnez	v1,9fc00044 <next_tlb_entry>
9fc0005c:	2063ffff 	addi	v1,v1,-1

9fc00060 <init_icache>:
9fc00060:	40028001 	mfc0	v0,c0_config1
9fc00064:	7c4314c0 	ext	v1,v0,0x13,0x3
9fc00068:	10600010 	beqz	v1,9fc000ac <done_icache>
9fc0006c:	00000000 	nop
9fc00070:	24060002 	li	a2,2
9fc00074:	00661804 	sllv	v1,a2,v1
9fc00078:	7c441580 	ext	a0,v0,0x16,0x3
9fc0007c:	24060040 	li	a2,64
9fc00080:	00862004 	sllv	a0,a2,a0
9fc00084:	7c451400 	ext	a1,v0,0x10,0x3
9fc00088:	20a50001 	addi	a1,a1,1
9fc0008c:	70852002 	mul	a0,a0,a1
9fc00090:	3c068000 	lui	a2,0x8000
9fc00094:	4080e000 	mtc0	zero,c0_taglo
9fc00098:	00803825 	move	a3,a0

9fc0009c <next_icache_tag>:
9fc0009c:	bcc80000 	cache	0x8,0(a2)
9fc000a0:	20e7ffff 	addi	a3,a3,-1
9fc000a4:	14e0fffd 	bnez	a3,9fc0009c <next_icache_tag>
9fc000a8:	00c33020 	add	a2,a2,v1

9fc000ac <done_icache>:
9fc000ac:	40028000 	mfc0	v0,c0_config
9fc000b0:	24030003 	li	v1,3
9fc000b4:	7c621004 	ins	v0,v1,0x0,0x3
9fc000b8:	40828000 	mtc0	v0,c0_config
9fc000bc:	3c069fc0 	lui	a2,0x9fc0
9fc000c0:	24c600cc 	addiu	a2,a2,204
9fc000c4:	00c00008 	jr	a2
9fc000c8:	000000c0 	ehb

9fc000cc <init_dcache>:
9fc000cc:	40028001 	mfc0	v0,c0_config1
9fc000d0:	7c431280 	ext	v1,v0,0xa,0x3
9fc000d4:	10600011 	beqz	v1,9fc0011c <done_dcache>
9fc000d8:	00000000 	nop
9fc000dc:	24060002 	li	a2,2
9fc000e0:	00661804 	sllv	v1,a2,v1
9fc000e4:	7c441340 	ext	a0,v0,0xd,0x3
9fc000e8:	24060040 	li	a2,64
9fc000ec:	00862004 	sllv	a0,a2,a0
9fc000f0:	7c4511c0 	ext	a1,v0,0x7,0x3
9fc000f4:	20a50001 	addi	a1,a1,1
9fc000f8:	70852002 	mul	a0,a0,a1
9fc000fc:	3c068000 	lui	a2,0x8000
9fc00100:	4080e000 	mtc0	zero,c0_taglo
9fc00104:	4080e002 	mtc0	zero,c0_taglo1
9fc00108:	00803825 	move	a3,a0

9fc0010c <next_dcache_tag>:
9fc0010c:	bcc90000 	cache	0x9,0(a2)
9fc00110:	20e7ffff 	addi	a3,a3,-1
9fc00114:	14e0fffd 	bnez	a3,9fc0010c <next_dcache_tag>
9fc00118:	00c33020 	add	a2,a2,v1

9fc0011c <done_dcache>:
9fc0011c:	3c1f9fc0 	lui	ra,0x9fc0
9fc00120:	27ff013c 	addiu	ra,ra,316
9fc00124:	00002025 	move	a0,zero
9fc00128:	3c029fc0 	lui	v0,0x9fc0
9fc0012c:	24420144 	addiu	v0,v0,324
9fc00130:	4082f000 	mtc0	v0,c0_errorepc
9fc00134:	000000c0 	ehb
9fc00138:	42000018 	eret

9fc0013c <all_done>:
9fc0013c:	1000ffff 	b	9fc0013c <all_done>
9fc00140:	00000000 	nop

9fc00144 <_start>:
9fc00144:	03e08025 	move	s0,ra
9fc00148:	3c1c8001 	lui	gp,0x8001
9fc0014c:	279c8ba0 	addiu	gp,gp,-29792
9fc00150:	3c1d8004 	lui	sp,0x8004
9fc00154:	27bd0000 	addiu	sp,sp,0
9fc00158:	3c028000 	lui	v0,0x8000
9fc0015c:	24420ba0 	addiu	v0,v0,2976
9fc00160:	3c038000 	lui	v1,0x8000
9fc00164:	24630ba0 	addiu	v1,v1,2976
9fc00168:	10430004 	beq	v0,v1,9fc0017c <_start+0x38>
9fc0016c:	00000000 	nop
9fc00170:	24420004 	addiu	v0,v0,4
9fc00174:	1443fffe 	bne	v0,v1,9fc00170 <_start+0x2c>
9fc00178:	ac40fffc 	sw	zero,-4(v0)
9fc0017c:	24040000 	li	a0,0
9fc00180:	27bdfff0 	addiu	sp,sp,-16
9fc00184:	40026000 	mfc0	v0,c0_status
9fc00188:	7c02b584 	ins	v0,zero,0x16,0x1
9fc0018c:	40826000 	mtc0	v0,c0_status
9fc00190:	000000c0 	ehb
9fc00194:	3c088000 	lui	t0,0x8000
9fc00198:	25080204 	addiu	t0,t0,516
9fc0019c:	0100f809 	jalr	t0
9fc001a0:	00000000 	nop
9fc001a4:	0200f825 	move	ra,s0
9fc001a8:	03e00008 	jr	ra
9fc001ac:	00000000 	nop

Disassembly of section .exception_vector:

80000000 <__exception_entry>:
80000000:	3c1b0000 	lui	k1,0x0
80000004:	277b0000 	addiu	k1,k1,0
80000008:	1360fffd 	beqz	k1,80000000 <__exception_entry>
8000000c:	00000000 	nop
80000010:	03600008 	jr	k1
80000014:	00000000 	nop
	...

80000080 <__xtlb_refill_loop>:
80000080:	3c1b0000 	lui	k1,0x0
80000084:	277b0000 	addiu	k1,k1,0
80000088:	1360fffd 	beqz	k1,80000080 <__xtlb_refill_loop>
8000008c:	00000000 	nop
80000090:	03600008 	jr	k1
80000094:	00000000 	nop
	...

80000100 <__cache_error_loop>:
80000100:	3c1b0000 	lui	k1,0x0
80000104:	277b0000 	addiu	k1,k1,0
80000108:	1360fffd 	beqz	k1,80000100 <__cache_error_loop>
8000010c:	00000000 	nop
80000110:	03600008 	jr	k1
80000114:	00000000 	nop
	...

80000180 <__general_exception_loop>:
80000180:	3c1b0000 	lui	k1,0x0
80000184:	277b0000 	addiu	k1,k1,0
80000188:	1360fffd 	beqz	k1,80000180 <__general_exception_loop>
8000018c:	00000000 	nop
80000190:	03600008 	jr	k1
80000194:	00000000 	nop
	...

Disassembly of section .text:

80000200 <__exception_handle>:
80000200:	00000000 	nop

80000204 <main>:
80000204:	3c0cbf80 	lui	t4,0xbf80
80000208:	0c0002ba 	jal	80000ae8 <LED_wrleds>
8000020c:	24020000 	li	v0,0
80000210:	00000000 	nop
80000214:	3c018000 	lui	at,0x8000
80000218:	a0220b4c 	sb	v0,2892(at)
8000021c:	240200cb 	li	v0,203
80000220:	3c018000 	lui	at,0x8000
80000224:	a0220b4f 	sb	v0,2895(at)
80000228:	0c0000e2 	jal	80000388 <init_btnluptbl>
8000022c:	00000000 	nop
80000230:	0c00011d 	jal	80000474 <init_mvmttbl>
80000234:	00000000 	nop
80000238:	0c0002c0 	jal	80000b00 <SS_wrdpts>
8000023c:	00000000 	nop
80000240:	00000000 	nop
80000244:	24020000 	li	v0,0
80000248:	3c018000 	lui	at,0x8000
8000024c:	a0220b75 	sb	v0,2933(at)
80000250:	3c088000 	lui	t0,0x8000
80000254:	2508074c 	addiu	t0,t0,1868
80000258:	3c018000 	lui	at,0x8000
8000025c:	ac280b84 	sw	t0,2948(at)

80000260 <main_L0>:
80000260:	3c08bf80 	lui	t0,0xbf80
80000264:	8d080004 	lw	t0,4(t0)
80000268:	01004027 	nor	t0,t0,zero
8000026c:	31088000 	andi	t0,t0,0x8000
80000270:	000843c2 	srl	t0,t0,0xf
80000274:	3c018000 	lui	at,0x8000
80000278:	a0280b7c 	sb	t0,2940(at)
8000027c:	3c0dbf60 	lui	t5,0xbf60
80000280:	35ad0014 	ori	t5,t5,0x14
80000284:	8db50000 	lw	s5,0(t5)
80000288:	12a0fff5 	beqz	s5,80000260 <main_L0>
8000028c:	00000000 	nop
80000290:	00000000 	nop
80000294:	3c0dbf60 	lui	t5,0xbf60
80000298:	35ad0018 	ori	t5,t5,0x18
8000029c:	24150001 	li	s5,1
800002a0:	adb50000 	sw	s5,0(t5)

800002a4 <main_L1>:
800002a4:	3c0dbf60 	lui	t5,0xbf60
800002a8:	35ad000c 	ori	t5,t5,0xc
800002ac:	8db50000 	lw	s5,0(t5)
800002b0:	32b600ff 	andi	s6,s5,0xff
800002b4:	3c018000 	lui	at,0x8000
800002b8:	a0360b4b 	sb	s6,2891(at)
800002bc:	0015aa02 	srl	s5,s5,0x8
800002c0:	32b600ff 	andi	s6,s5,0xff
800002c4:	3c018000 	lui	at,0x8000
800002c8:	a0360b4a 	sb	s6,2890(at)
800002cc:	0015aa02 	srl	s5,s5,0x8
800002d0:	32b600ff 	andi	s6,s5,0xff
800002d4:	3c018000 	lui	at,0x8000
800002d8:	a0360b49 	sb	s6,2889(at)
800002dc:	0015aa02 	srl	s5,s5,0x8
800002e0:	32b600ff 	andi	s6,s5,0xff
800002e4:	3c018000 	lui	at,0x8000
800002e8:	a0360b48 	sb	s6,2888(at)
800002ec:	0c0001b3 	jal	800006cc <next_loc>
800002f0:	00000000 	nop
800002f4:	0c000158 	jal	80000560 <next_mvmt>
800002f8:	00000000 	nop
800002fc:	0c000164 	jal	80000590 <next_hdg>
80000300:	00000000 	nop
80000304:	00000000 	nop

80000308 <main_L2>:
80000308:	0c0000d3 	jal	8000034c <wr_alldigits>
8000030c:	00000000 	nop
80000310:	00000000 	nop
80000314:	3c028000 	lui	v0,0x8000
80000318:	80420b4a 	lb	v0,2890(v0)
8000031c:	0c0002ba 	jal	80000ae8 <LED_wrleds>
80000320:	00000000 	nop
80000324:	00000000 	nop
80000328:	3c0dbf60 	lui	t5,0xbf60
8000032c:	35ad0018 	ori	t5,t5,0x18
80000330:	24150000 	li	s5,0
80000334:	100000fc 	b	80000728 <next_step>
80000338:	adb50000 	sw	s5,0(t5)
8000033c:	00000000 	nop

80000340 <ret_next_step>:
80000340:	1000ffc7 	b	80000260 <main_L0>
80000344:	00000000 	nop
80000348:	00000000 	nop

8000034c <wr_alldigits>:
8000034c:	3c198000 	lui	t9,0x8000
80000350:	8f390b40 	lw	t9,2880(t9)
80000354:	3c02bf70 	lui	v0,0xbf70
80000358:	34420008 	ori	v0,v0,0x8
8000035c:	ac590000 	sw	t9,0(v0)
80000360:	3c198000 	lui	t9,0x8000
80000364:	8f390b44 	lw	t9,2884(t9)
80000368:	3c02bf70 	lui	v0,0xbf70
8000036c:	34420004 	ori	v0,v0,0x4
80000370:	ac590000 	sw	t9,0(v0)
80000374:	24190000 	li	t9,0
80000378:	3c02bf70 	lui	v0,0xbf70
8000037c:	03e00008 	jr	ra
80000380:	ac590000 	sw	t9,0(v0)
80000384:	00000000 	nop

80000388 <init_btnluptbl>:
80000388:	3c028000 	lui	v0,0x8000
8000038c:	24420b55 	addiu	v0,v0,2901
80000390:	24030000 	li	v1,0
80000394:	a0430000 	sb	v1,0(v0)
80000398:	20420001 	addi	v0,v0,1
8000039c:	24030002 	li	v1,2
800003a0:	a0430000 	sb	v1,0(v0)
800003a4:	20420001 	addi	v0,v0,1
800003a8:	24030003 	li	v1,3
800003ac:	a0430000 	sb	v1,0(v0)
800003b0:	20420001 	addi	v0,v0,1
800003b4:	24030000 	li	v1,0
800003b8:	a0430000 	sb	v1,0(v0)
800003bc:	20420001 	addi	v0,v0,1
800003c0:	24030020 	li	v1,32
800003c4:	a0430000 	sb	v1,0(v0)
800003c8:	20420001 	addi	v0,v0,1
800003cc:	24030022 	li	v1,34
800003d0:	a0430000 	sb	v1,0(v0)
800003d4:	20420001 	addi	v0,v0,1
800003d8:	24030023 	li	v1,35
800003dc:	a0430000 	sb	v1,0(v0)
800003e0:	20420001 	addi	v0,v0,1
800003e4:	24030020 	li	v1,32
800003e8:	a0430000 	sb	v1,0(v0)
800003ec:	20420001 	addi	v0,v0,1
800003f0:	24030030 	li	v1,48
800003f4:	a0430000 	sb	v1,0(v0)
800003f8:	20420001 	addi	v0,v0,1
800003fc:	24030032 	li	v1,50
80000400:	a0430000 	sb	v1,0(v0)
80000404:	20420001 	addi	v0,v0,1
80000408:	24030033 	li	v1,51
8000040c:	a0430000 	sb	v1,0(v0)
80000410:	20420001 	addi	v0,v0,1
80000414:	24030030 	li	v1,48
80000418:	a0430000 	sb	v1,0(v0)
8000041c:	20420001 	addi	v0,v0,1
80000420:	24030000 	li	v1,0
80000424:	a0430000 	sb	v1,0(v0)
80000428:	20420001 	addi	v0,v0,1
8000042c:	24030002 	li	v1,2
80000430:	a0430000 	sb	v1,0(v0)
80000434:	20420001 	addi	v0,v0,1
80000438:	24030003 	li	v1,3
8000043c:	a0430000 	sb	v1,0(v0)
80000440:	20420001 	addi	v0,v0,1
80000444:	24030000 	li	v1,0
80000448:	03e00008 	jr	ra
8000044c:	a0430000 	sb	v1,0(v0)
80000450:	00000000 	nop

80000454 <btn2mot>:
80000454:	3c038000 	lui	v1,0x8000
80000458:	24630b55 	addiu	v1,v1,2901
8000045c:	20820000 	addi	v0,a0,0
80000460:	3042000f 	andi	v0,v0,0xf
80000464:	00621820 	add	v1,v1,v0
80000468:	03e00008 	jr	ra
8000046c:	80620000 	lb	v0,0(v1)
80000470:	00000000 	nop

80000474 <init_mvmttbl>:
80000474:	3c028000 	lui	v0,0x8000
80000478:	24420b65 	addiu	v0,v0,2917
8000047c:	24030017 	li	v1,23
80000480:	a0430000 	sb	v1,0(v0)
80000484:	20420001 	addi	v0,v0,1
80000488:	2403001c 	li	v1,28
8000048c:	a0430000 	sb	v1,0(v0)
80000490:	20420001 	addi	v0,v0,1
80000494:	2403001c 	li	v1,28
80000498:	a0430000 	sb	v1,0(v0)
8000049c:	20420001 	addi	v0,v0,1
800004a0:	2403001c 	li	v1,28
800004a4:	a0430000 	sb	v1,0(v0)
800004a8:	20420001 	addi	v0,v0,1
800004ac:	2403000f 	li	v1,15
800004b0:	a0430000 	sb	v1,0(v0)
800004b4:	20420001 	addi	v0,v0,1
800004b8:	2403001c 	li	v1,28
800004bc:	a0430000 	sb	v1,0(v0)
800004c0:	20420001 	addi	v0,v0,1
800004c4:	2403001c 	li	v1,28
800004c8:	a0430000 	sb	v1,0(v0)
800004cc:	20420001 	addi	v0,v0,1
800004d0:	2403001c 	li	v1,28
800004d4:	a0430000 	sb	v1,0(v0)
800004d8:	20420001 	addi	v0,v0,1
800004dc:	2403000b 	li	v1,11
800004e0:	a0430000 	sb	v1,0(v0)
800004e4:	20420001 	addi	v0,v0,1
800004e8:	2403001c 	li	v1,28
800004ec:	a0430000 	sb	v1,0(v0)
800004f0:	20420001 	addi	v0,v0,1
800004f4:	2403001c 	li	v1,28
800004f8:	a0430000 	sb	v1,0(v0)
800004fc:	20420001 	addi	v0,v0,1
80000500:	2403001c 	li	v1,28
80000504:	a0430000 	sb	v1,0(v0)
80000508:	20420001 	addi	v0,v0,1
8000050c:	24030018 	li	v1,24
80000510:	a0430000 	sb	v1,0(v0)
80000514:	20420001 	addi	v0,v0,1
80000518:	2403001a 	li	v1,26
8000051c:	a0430000 	sb	v1,0(v0)
80000520:	20420001 	addi	v0,v0,1
80000524:	24030019 	li	v1,25
80000528:	a0430000 	sb	v1,0(v0)
8000052c:	20420001 	addi	v0,v0,1
80000530:	2403001b 	li	v1,27
80000534:	03e00008 	jr	ra
80000538:	a0430000 	sb	v1,0(v0)
8000053c:	00000000 	nop

80000540 <mvmt2cc>:
80000540:	3c038000 	lui	v1,0x8000
80000544:	24630b65 	addiu	v1,v1,2917
80000548:	23220000 	addi	v0,t9,0
8000054c:	3042000f 	andi	v0,v0,0xf
80000550:	00621820 	add	v1,v1,v0
80000554:	10000009 	b	8000057c <back_mvmt2cc>
80000558:	80620000 	lb	v0,0(v1)
8000055c:	00000000 	nop

80000560 <next_mvmt>:
80000560:	3c198000 	lui	t9,0x8000
80000564:	83390b4b 	lb	t9,2891(t9)
80000568:	3c018000 	lui	at,0x8000
8000056c:	a0390b4d 	sb	t9,2893(at)
80000570:	1000fff3 	b	80000540 <mvmt2cc>
80000574:	0019c902 	srl	t9,t9,0x4
80000578:	00000000 	nop

8000057c <back_mvmt2cc>:
8000057c:	3c018000 	lui	at,0x8000
80000580:	a0220b44 	sb	v0,2884(at)
80000584:	03e00008 	jr	ra
80000588:	00000000 	nop
8000058c:	00000000 	nop

80000590 <next_hdg>:
80000590:	3c198000 	lui	t9,0x8000
80000594:	83390b4b 	lb	t9,2891(t9)
80000598:	33390007 	andi	t9,t9,0x7
8000059c:	3c018000 	lui	at,0x8000
800005a0:	a0390b4e 	sb	t9,2894(at)

800005a4 <nh_caseORN>:
800005a4:	17200007 	bnez	t9,800005c4 <nh_caseORNE>
800005a8:	00000000 	nop
800005ac:	00000000 	nop
800005b0:	24050000 	li	a1,0
800005b4:	24060000 	li	a2,0
800005b8:	1000003b 	b	800006a8 <nh_endcase>
800005bc:	24070000 	li	a3,0
800005c0:	00000000 	nop

800005c4 <nh_caseORNE>:
800005c4:	24010001 	li	at,1
800005c8:	17210007 	bne	t9,at,800005e8 <nh_caseORE>
800005cc:	00000000 	nop
800005d0:	00000000 	nop
800005d4:	24050000 	li	a1,0
800005d8:	24060004 	li	a2,4
800005dc:	10000032 	b	800006a8 <nh_endcase>
800005e0:	24070005 	li	a3,5
800005e4:	00000000 	nop

800005e8 <nh_caseORE>:
800005e8:	24010002 	li	at,2
800005ec:	17210007 	bne	t9,at,8000060c <nh_caseORSE>
800005f0:	00000000 	nop
800005f4:	00000000 	nop
800005f8:	24050000 	li	a1,0
800005fc:	24060009 	li	a2,9
80000600:	10000029 	b	800006a8 <nh_endcase>
80000604:	24070000 	li	a3,0
80000608:	00000000 	nop

8000060c <nh_caseORSE>:
8000060c:	24010003 	li	at,3
80000610:	17210007 	bne	t9,at,80000630 <nh_caseORS>
80000614:	00000000 	nop
80000618:	00000000 	nop
8000061c:	24050001 	li	a1,1
80000620:	24060003 	li	a2,3
80000624:	10000020 	b	800006a8 <nh_endcase>
80000628:	24070005 	li	a3,5
8000062c:	00000000 	nop

80000630 <nh_caseORS>:
80000630:	24010004 	li	at,4
80000634:	17210007 	bne	t9,at,80000654 <nh_caseORSW>
80000638:	00000000 	nop
8000063c:	00000000 	nop
80000640:	24050001 	li	a1,1
80000644:	24060008 	li	a2,8
80000648:	10000017 	b	800006a8 <nh_endcase>
8000064c:	24070000 	li	a3,0
80000650:	00000000 	nop

80000654 <nh_caseORSW>:
80000654:	24010005 	li	at,5
80000658:	17210007 	bne	t9,at,80000678 <nh_caseORW>
8000065c:	00000000 	nop
80000660:	00000000 	nop
80000664:	24050002 	li	a1,2
80000668:	24060002 	li	a2,2
8000066c:	1000000e 	b	800006a8 <nh_endcase>
80000670:	24070005 	li	a3,5
80000674:	00000000 	nop

80000678 <nh_caseORW>:
80000678:	24010006 	li	at,6
8000067c:	17210007 	bne	t9,at,8000069c <nh_caseORNW>
80000680:	00000000 	nop
80000684:	00000000 	nop
80000688:	24050002 	li	a1,2
8000068c:	24060007 	li	a2,7
80000690:	10000005 	b	800006a8 <nh_endcase>
80000694:	24070000 	li	a3,0
80000698:	00000000 	nop

8000069c <nh_caseORNW>:
8000069c:	24050003 	li	a1,3
800006a0:	24060001 	li	a2,1
800006a4:	24070005 	li	a3,5

800006a8 <nh_endcase>:
800006a8:	3c018000 	lui	at,0x8000
800006ac:	a0250b47 	sb	a1,2887(at)
800006b0:	3c018000 	lui	at,0x8000
800006b4:	a0260b46 	sb	a2,2886(at)
800006b8:	3c018000 	lui	at,0x8000
800006bc:	a0270b45 	sb	a3,2885(at)
800006c0:	03e00008 	jr	ra
800006c4:	00000000 	nop
800006c8:	00000000 	nop

800006cc <next_loc>:
800006cc:	3c198000 	lui	t9,0x8000
800006d0:	83390b48 	lb	t9,2888(t9)
800006d4:	232b0000 	addi	t3,t9,0
800006d8:	316b000f 	andi	t3,t3,0xf
800006dc:	0019c902 	srl	t9,t9,0x4
800006e0:	232c0000 	addi	t4,t9,0
800006e4:	3c198000 	lui	t9,0x8000
800006e8:	83390b49 	lb	t9,2889(t9)
800006ec:	232d0000 	addi	t5,t9,0
800006f0:	31ad000f 	andi	t5,t5,0xf
800006f4:	0019c902 	srl	t9,t9,0x4
800006f8:	232e0000 	addi	t6,t9,0
800006fc:	3c018000 	lui	at,0x8000
80000700:	a02b0b42 	sb	t3,2882(at)
80000704:	3c018000 	lui	at,0x8000
80000708:	a02c0b43 	sb	t4,2883(at)
8000070c:	3c018000 	lui	at,0x8000
80000710:	a02d0b40 	sb	t5,2880(at)
80000714:	3c018000 	lui	at,0x8000
80000718:	a02e0b41 	sb	t6,2881(at)
8000071c:	03e00008 	jr	ra
80000720:	00000000 	nop
80000724:	00000000 	nop

80000728 <next_step>:
80000728:	3c088000 	lui	t0,0x8000
8000072c:	81080b7c 	lb	t0,2940(t0)
80000730:	150000b1 	bnez	t0,800009f8 <next_step_manual>
80000734:	00000000 	nop

80000738 <next_step_auto>:
80000738:	3c088000 	lui	t0,0x8000
8000073c:	8d080b84 	lw	t0,2948(t0)
80000740:	01000008 	jr	t0
80000744:	00000000 	nop
80000748:	00000000 	nop

8000074c <nsa_running>:
8000074c:	0c000290 	jal	80000a40 <check_off_black_line>
80000750:	00000000 	nop
80000754:	14400006 	bnez	v0,80000770 <nsa_running_to_backoff>
80000758:	00000000 	nop
8000075c:	24080033 	li	t0,51
80000760:	3c01bf60 	lui	at,0xbf60
80000764:	080000d0 	j	80000340 <ret_next_step>
80000768:	a0280010 	sb	t0,16(at)
8000076c:	00000000 	nop

80000770 <nsa_running_to_backoff>:
80000770:	3c088000 	lui	t0,0x8000
80000774:	81080b4b 	lb	t0,2891(t0)
80000778:	31080007 	andi	t0,t0,0x7
8000077c:	3c018000 	lui	at,0x8000
80000780:	ac280b88 	sw	t0,2952(at)
80000784:	21080004 	addi	t0,t0,4
80000788:	24090008 	li	t1,8
8000078c:	012001f4 	teq	t1,zero,0x7
80000790:	0109001a 	div	zero,t0,t1
80000794:	2401ffff 	li	at,-1
80000798:	15210002 	bne	t1,at,800007a4 <nsa_running_to_backoff+0x34>
8000079c:	3c018000 	lui	at,0x8000
800007a0:	010101b4 	teq	t0,at,0x6
800007a4:	00004010 	mfhi	t0
800007a8:	3c018000 	lui	at,0x8000
800007ac:	ac280b8c 	sw	t0,2956(at)
800007b0:	3c088000 	lui	t0,0x8000
800007b4:	8d080b88 	lw	t0,2952(t0)
800007b8:	3c018000 	lui	at,0x8000
800007bc:	ac280b90 	sw	t0,2960(at)
800007c0:	3c088000 	lui	t0,0x8000
800007c4:	250807e4 	addiu	t0,t0,2020
800007c8:	3c018000 	lui	at,0x8000
800007cc:	ac280b84 	sw	t0,2948(at)
800007d0:	24080022 	li	t0,34
800007d4:	3c01bf60 	lui	at,0xbf60
800007d8:	080000d0 	j	80000340 <ret_next_step>
800007dc:	a0280010 	sb	t0,16(at)
800007e0:	00000000 	nop

800007e4 <nsa_back_off>:
800007e4:	0c000290 	jal	80000a40 <check_off_black_line>
800007e8:	00000000 	nop
800007ec:	10400006 	beqz	v0,80000808 <nsa_back_off_online>
800007f0:	00000000 	nop
800007f4:	24080022 	li	t0,34
800007f8:	3c01bf60 	lui	at,0xbf60
800007fc:	080000d0 	j	80000340 <ret_next_step>
80000800:	a0280010 	sb	t0,16(at)
80000804:	00000000 	nop

80000808 <nsa_back_off_online>:
80000808:	3c088000 	lui	t0,0x8000
8000080c:	2508082c 	addiu	t0,t0,2092
80000810:	3c018000 	lui	at,0x8000
80000814:	ac280b84 	sw	t0,2948(at)
80000818:	24080000 	li	t0,0
8000081c:	3c01bf60 	lui	at,0xbf60
80000820:	080000d0 	j	80000340 <ret_next_step>
80000824:	a0280010 	sb	t0,16(at)
80000828:	00000000 	nop

8000082c <nsa_find_valid_direction>:
8000082c:	3c088000 	lui	t0,0x8000
80000830:	8d080b90 	lw	t0,2960(t0)
80000834:	21080001 	addi	t0,t0,1
80000838:	24090008 	li	t1,8
8000083c:	012001f4 	teq	t1,zero,0x7
80000840:	0109001a 	div	zero,t0,t1
80000844:	2401ffff 	li	at,-1
80000848:	15210002 	bne	t1,at,80000854 <nsa_find_valid_direction+0x28>
8000084c:	3c018000 	lui	at,0x8000
80000850:	010101b4 	teq	t0,at,0x6
80000854:	00004010 	mfhi	t0
80000858:	3c018000 	lui	at,0x8000
8000085c:	ac280b90 	sw	t0,2960(at)
80000860:	3c098000 	lui	t1,0x8000
80000864:	8d290b88 	lw	t1,2952(t1)
80000868:	1109000e 	beq	t0,t1,800008a4 <nsa_find_to_stop>
8000086c:	00000000 	nop
80000870:	3c098000 	lui	t1,0x8000
80000874:	8d290b8c 	lw	t1,2956(t1)
80000878:	1109ffec 	beq	t0,t1,8000082c <nsa_find_valid_direction>
8000087c:	00000000 	nop
80000880:	3c088000 	lui	t0,0x8000
80000884:	250808cc 	addiu	t0,t0,2252
80000888:	3c018000 	lui	at,0x8000
8000088c:	ac280b84 	sw	t0,2948(at)
80000890:	24080030 	li	t0,48
80000894:	3c01bf60 	lui	at,0xbf60
80000898:	080000d0 	j	80000340 <ret_next_step>
8000089c:	a0280010 	sb	t0,16(at)
800008a0:	00000000 	nop

800008a4 <nsa_find_to_stop>:
800008a4:	24080000 	li	t0,0
800008a8:	3c01bf60 	lui	at,0xbf60
800008ac:	a0280010 	sb	t0,16(at)
800008b0:	3c088000 	lui	t0,0x8000
800008b4:	250809e4 	addiu	t0,t0,2532
800008b8:	3c018000 	lui	at,0x8000
800008bc:	ac280b84 	sw	t0,2948(at)
800008c0:	080000d0 	j	80000340 <ret_next_step>
800008c4:	00000000 	nop
800008c8:	00000000 	nop

800008cc <nsa_rotating>:
800008cc:	3c088000 	lui	t0,0x8000
800008d0:	81080b4b 	lb	t0,2891(t0)
800008d4:	31080007 	andi	t0,t0,0x7
800008d8:	3c098000 	lui	t1,0x8000
800008dc:	8d290b90 	lw	t1,2960(t1)
800008e0:	11090006 	beq	t0,t1,800008fc <nsa_rotating_to_verify>
800008e4:	00000000 	nop
800008e8:	24080030 	li	t0,48
800008ec:	3c01bf60 	lui	at,0xbf60
800008f0:	080000d0 	j	80000340 <ret_next_step>
800008f4:	a0280010 	sb	t0,16(at)
800008f8:	00000000 	nop

800008fc <nsa_rotating_to_verify>:
800008fc:	3c088000 	lui	t0,0x8000
80000900:	81080b48 	lb	t0,2888(t0)
80000904:	3c018000 	lui	at,0x8000
80000908:	ac280b94 	sw	t0,2964(at)
8000090c:	3c088000 	lui	t0,0x8000
80000910:	81080b49 	lb	t0,2889(t0)
80000914:	3c018000 	lui	at,0x8000
80000918:	ac280b98 	sw	t0,2968(at)
8000091c:	24080000 	li	t0,0
80000920:	3c01bf60 	lui	at,0xbf60
80000924:	a0280010 	sb	t0,16(at)
80000928:	3c088000 	lui	t0,0x8000
8000092c:	25080944 	addiu	t0,t0,2372
80000930:	3c018000 	lui	at,0x8000
80000934:	ac280b84 	sw	t0,2948(at)
80000938:	080000d0 	j	80000340 <ret_next_step>
8000093c:	00000000 	nop
80000940:	00000000 	nop

80000944 <nsa_verify_answer>:
80000944:	0c000290 	jal	80000a40 <check_off_black_line>
80000948:	00000000 	nop
8000094c:	1040000a 	beqz	v0,80000978 <nsa_verify_online>
80000950:	00000000 	nop
80000954:	3c088000 	lui	t0,0x8000
80000958:	250807e4 	addiu	t0,t0,2020
8000095c:	3c018000 	lui	at,0x8000
80000960:	ac280b84 	sw	t0,2948(at)
80000964:	24080022 	li	t0,34
80000968:	3c01bf60 	lui	at,0xbf60
8000096c:	080000d0 	j	80000340 <ret_next_step>
80000970:	a0280010 	sb	t0,16(at)
80000974:	00000000 	nop

80000978 <nsa_verify_online>:
80000978:	3c088000 	lui	t0,0x8000
8000097c:	81080b48 	lb	t0,2888(t0)
80000980:	3c098000 	lui	t1,0x8000
80000984:	8d290b94 	lw	t1,2964(t1)
80000988:	1509000c 	bne	t0,t1,800009bc <nsa_verify_to_running>
8000098c:	00000000 	nop
80000990:	3c088000 	lui	t0,0x8000
80000994:	81080b49 	lb	t0,2889(t0)
80000998:	3c098000 	lui	t1,0x8000
8000099c:	8d290b98 	lw	t1,2968(t1)
800009a0:	15090006 	bne	t0,t1,800009bc <nsa_verify_to_running>
800009a4:	00000000 	nop
800009a8:	24080033 	li	t0,51
800009ac:	3c01bf60 	lui	at,0xbf60
800009b0:	080000d0 	j	80000340 <ret_next_step>
800009b4:	a0280010 	sb	t0,16(at)
800009b8:	00000000 	nop

800009bc <nsa_verify_to_running>:
800009bc:	24080033 	li	t0,51
800009c0:	3c01bf60 	lui	at,0xbf60
800009c4:	a0280010 	sb	t0,16(at)
800009c8:	3c088000 	lui	t0,0x8000
800009cc:	2508074c 	addiu	t0,t0,1868
800009d0:	3c018000 	lui	at,0x8000
800009d4:	ac280b84 	sw	t0,2948(at)
800009d8:	080000d0 	j	80000340 <ret_next_step>
800009dc:	00000000 	nop
800009e0:	00000000 	nop

800009e4 <nsa_stop>:
800009e4:	24080000 	li	t0,0
800009e8:	3c01bf60 	lui	at,0xbf60
800009ec:	080000d0 	j	80000340 <ret_next_step>
800009f0:	a0280010 	sb	t0,16(at)
800009f4:	00000000 	nop

800009f8 <next_step_manual>:
800009f8:	3c198000 	lui	t9,0x8000
800009fc:	83390b4a 	lb	t9,2890(t9)
80000a00:	3c028000 	lui	v0,0x8000
80000a04:	80420b4a 	lb	v0,2890(v0)
80000a08:	3c038000 	lui	v1,0x8000
80000a0c:	80630b4a 	lb	v1,2890(v1)
80000a10:	33390010 	andi	t9,t9,0x10
80000a14:	30420008 	andi	v0,v0,0x8
80000a18:	0c0002ad 	jal	80000ab4 <DEB_rdbtns>
80000a1c:	30630007 	andi	v1,v1,0x7
80000a20:	0c000115 	jal	80000454 <btn2mot>
80000a24:	00000000 	nop
80000a28:	00000000 	nop
80000a2c:	3c19bf60 	lui	t9,0xbf60
80000a30:	37390010 	ori	t9,t9,0x10
80000a34:	1000fe42 	b	80000340 <ret_next_step>
80000a38:	af220000 	sw	v0,0(t9)
80000a3c:	00000000 	nop

80000a40 <check_off_black_line>:
80000a40:	3c028000 	lui	v0,0x8000
80000a44:	80420b4a 	lb	v0,2890(v0)
80000a48:	03e00008 	jr	ra
80000a4c:	30420001 	andi	v0,v0,0x1
80000a50:	00000000 	nop

80000a54 <reorder_btns>:
80000a54:	0000c820 	add	t9,zero,zero
80000a58:	0004a8c2 	srl	s5,a0,0x3
80000a5c:	32b50001 	andi	s5,s5,0x1
80000a60:	2401fffe 	li	at,-2
80000a64:	0321c824 	and	t9,t9,at
80000a68:	0335c825 	or	t9,t9,s5
80000a6c:	0004a840 	sll	s5,a0,0x1
80000a70:	32b50002 	andi	s5,s5,0x2
80000a74:	2401fffd 	li	at,-3
80000a78:	0321c824 	and	t9,t9,at
80000a7c:	0335c825 	or	t9,t9,s5
80000a80:	0004a882 	srl	s5,a0,0x2
80000a84:	32b50004 	andi	s5,s5,0x4
80000a88:	2401fffb 	li	at,-5
80000a8c:	0321c824 	and	t9,t9,at
80000a90:	0335c825 	or	t9,t9,s5
80000a94:	0004a840 	sll	s5,a0,0x1
80000a98:	32b50008 	andi	s5,s5,0x8
80000a9c:	2401fff7 	li	at,-9
80000aa0:	0321c824 	and	t9,t9,at
80000aa4:	0335c825 	or	t9,t9,s5
80000aa8:	03e00008 	jr	ra
80000aac:	03202020 	add	a0,t9,zero
80000ab0:	00000000 	nop

80000ab4 <DEB_rdbtns>:
80000ab4:	3c19bf80 	lui	t9,0xbf80
80000ab8:	37390008 	ori	t9,t9,0x8
80000abc:	8f240000 	lw	a0,0(t9)
80000ac0:	23bdfffc 	addi	sp,sp,-4
80000ac4:	afbf0000 	sw	ra,0(sp)
80000ac8:	0c000295 	jal	80000a54 <reorder_btns>
80000acc:	00000000 	nop
80000ad0:	00000000 	nop
80000ad4:	8fbf0000 	lw	ra,0(sp)
80000ad8:	23bd0004 	addi	sp,sp,4
80000adc:	03e00008 	jr	ra
80000ae0:	3084001f 	andi	a0,a0,0x1f
80000ae4:	00000000 	nop

80000ae8 <LED_wrleds>:
80000ae8:	20590000 	addi	t9,v0,0
80000aec:	333900ff 	andi	t9,t9,0xff
80000af0:	3c02bf80 	lui	v0,0xbf80
80000af4:	03e00008 	jr	ra
80000af8:	ac590000 	sw	t9,0(v0)
80000afc:	00000000 	nop

80000b00 <SS_wrdpts>:
80000b00:	3c198000 	lui	t9,0x8000
80000b04:	83390b4f 	lb	t9,2895(t9)
80000b08:	3c02bf70 	lui	v0,0xbf70
80000b0c:	3442000c 	ori	v0,v0,0xc
80000b10:	03e00008 	jr	ra
80000b14:	ac590000 	sw	t9,0(v0)
80000b18:	00000000 	nop

Disassembly of section .data:

80000b40 <_fdata>:
	...

80000b41 <SP_DIG1>:
	...

80000b42 <SP_DIG2>:
	...

80000b43 <SP_DIG3>:
	...

80000b44 <SP_DIG4>:
	...

80000b45 <SP_DIG5>:
	...

80000b46 <SP_DIG6>:
	...

80000b47 <SP_DIG7>:
	...

80000b48 <LOCx_REG>:
	...

80000b49 <LOCy_REG>:
	...

80000b4a <SENSOR_REG>:
	...

80000b4b <BOTINF_REG>:
	...

80000b4c <SP_SEM>:
	...

80000b4d <SP_OLDMVMT>:
	...

80000b4e <SP_OLDHDG>:
	...

80000b4f <SP_OLDDP>:
	...

80000b50 <SP_OLDHDG1>:
	...

80000b51 <SP_RGTCNT>:
	...

80000b52 <SP_LEFTFL>:
	...

80000b53 <SP_OLDX>:
	...

80000b54 <SP_OLDY>:
	...

80000b55 <SP_BTNBAS1>:
	...

80000b56 <SP_BTNBAS2>:
	...

80000b57 <SP_BTNBAS3>:
	...

80000b58 <SP_BTNBAS4>:
	...

80000b59 <SP_BTNBAS5>:
	...

80000b5a <SP_BTNBAS6>:
	...

80000b5b <SP_BTNBAS7>:
	...

80000b5c <SP_BTNBAS8>:
	...

80000b5d <SP_BTNBAS9>:
	...

80000b5e <SP_BTNBAS10>:
	...

80000b5f <SP_BTNBAS11>:
	...

80000b60 <SP_BTNBAS12>:
	...

80000b61 <SP_BTNBAS13>:
	...

80000b62 <SP_BTNBAS14>:
	...

80000b63 <SP_BTNBAS15>:
	...

80000b64 <SP_BTNBAS16>:
	...

80000b65 <SP_MVTBAS1>:
	...

80000b66 <SP_MVTBAS2>:
	...

80000b67 <SP_MVTBAS3>:
	...

80000b68 <SP_MVTBAS4>:
	...

80000b69 <SP_MVTBAS5>:
	...

80000b6a <SP_MVTBAS6>:
	...

80000b6b <SP_MVTBAS7>:
	...

80000b6c <SP_MVTBAS8>:
	...

80000b6d <SP_MVTBAS9>:
	...

80000b6e <SP_MVTBAS10>:
	...

80000b6f <SP_MVTBAS11>:
	...

80000b70 <SP_MVTBAS12>:
	...

80000b71 <SP_MVTBAS13>:
	...

80000b72 <SP_MVTBAS14>:
	...

80000b73 <SP_MVTBAS15>:
	...

80000b74 <SP_MVTBAS16>:
	...

80000b75 <SP_RGTC0NT>:
80000b75:	0000      	addiu	s0,sp,0
	...

80000b78 <SP_TEMP>:
80000b78:	00000000 	nop

80000b7c <SP_ROBOT_MODE>:
80000b7c:	00000000 	nop

80000b80 <SP_TEMP_1>:
80000b80:	00000000 	nop

80000b84 <SP_NSA_STATE>:
80000b84:	00000000 	nop

80000b88 <SP_NSA_START_DIRECTION>:
80000b88:	00000000 	nop

80000b8c <SP_NSA_OPPOSITE_DIRECTION>:
80000b8c:	00000000 	nop

80000b90 <SP_NSA_TRIAL_DIRECTION>:
80000b90:	00000000 	nop

80000b94 <SP_NSA_LOC_X>:
80000b94:	00000000 	nop

80000b98 <SP_NSA_LOC_Y>:
80000b98:	00000000 	nop

Disassembly of section .debug_aranges:

00000000 <.debug_aranges>:
   0:	0000001c 	0x1c
   4:	00000002 	srl	zero,zero,0x0
   8:	00040000 	sll	zero,a0,0x0
   c:	00000000 	nop
  10:	9fc00144 	0x9fc00144
  14:	0000006c 	0x6c
	...
  20:	0000001c 	0x1c
  24:	006d0002 	0x6d0002
  28:	00040000 	sll	zero,a0,0x0
  2c:	00000000 	nop
  30:	9fc00000 	0x9fc00000
  34:	00000144 	0x144
	...
  40:	0000001c 	0x1c
  44:	00da0002 	0xda0002
  48:	00040000 	sll	zero,a0,0x0
  4c:	00000000 	nop
  50:	80000000 	lb	zero,0(zero)
  54:	00000198 	0x198
	...
  60:	0000001c 	0x1c
  64:	014d0002 	0x14d0002
  68:	00040000 	sll	zero,a0,0x0
  6c:	00000000 	nop
  70:	80000200 	lb	zero,512(zero)
  74:	00000004 	sllv	zero,zero,zero
	...
  80:	0000001c 	0x1c
  84:	01bb0002 	0x1bb0002
  88:	00040000 	sll	zero,a0,0x0
  8c:	00000000 	nop
  90:	80000204 	lb	zero,516(zero)
  94:	00000918 	0x918
	...

Disassembly of section .debug_info:

00000000 <.debug_info>:
   0:	00000069 	0x69
   4:	00000002 	srl	zero,zero,0x0
   8:	01040000 	0x1040000
   c:	00000000 	nop
  10:	9fc00144 	0x9fc00144
  14:	9fc001b0 	0x9fc001b0
  18:	30747263 	andi	s4,v1,0x7263
  1c:	4e00532e 	msub.ps	$f12,$f16,$f10,$f0
  20:	72505c3a 	0x72505c3a
  24:	63656a6f 	0x63656a6f
  28:	455c7374 	bc1any4f	$fcc7,1cdfc <MSKSENSOR+0xcefc>
  2c:	34354543 	ori	s5,at,0x4543
  30:	72505f30 	d32sll	xr12,xr7,xr1,xr4,9
  34:	305f6a6f 	andi	ra,v0,0x6a6f
  38:	72705c32 	0x72705c32
  3c:	305f6a6f 	andi	ra,v0,0x6a6f
  40:	6f735f32 	0x6f735f32
  44:	61777466 	0x61777466
  48:	705c6572 	0x705c6572
  4c:	5f6a6f72 	0x5f6a6f72
  50:	735f3230 	d32sll	xr8,xr12,xr12,xr7,13
  54:	7774666f 	jalx	dd199bc <MSKLOCy+0xcd299bc>
  58:	00657261 	0x657261
  5c:	20554e47 	addi	s5,v0,20039
  60:	32205341 	andi	zero,s1,0x5341
  64:	2e34322e 	sltiu	s4,s1,12846
  68:	01003039 	0x1003039
  6c:	00006980 	sll	t5,zero,0x6
  70:	14000200 	bnez	zero,874 <MSKBOTINFO+0x775>
  74:	04000000 	bltz	zero,78 <MSKMVMT_F+0x38>
  78:	00004801 	movf	t1,zero,$fcc0
  7c:	c0000000 	ll	zero,0(zero)
  80:	c001449f 	ll	at,17567(zero)
  84:	6f6f629f 	0x6f6f629f
  88:	00532e74 	teq	v0,s3,0xb9
  8c:	505c3a4e 	beql	v0,gp,e9c8 <MSKBOTINFO+0xe8c9>
  90:	656a6f72 	0x656a6f72
  94:	5c737463 	0x5c737463
  98:	35454345 	ori	a1,t2,0x4345
  9c:	505f3034 	beql	v0,ra,c170 <MSKBOTINFO+0xc071>
  a0:	5f6a6f72 	0x5f6a6f72
  a4:	705c3230 	d32sll	xr8,xr12,xr0,xr7,1
  a8:	5f6a6f72 	0x5f6a6f72
  ac:	735f3230 	d32sll	xr8,xr12,xr12,xr7,13
  b0:	7774666f 	jalx	dd199bc <MSKLOCy+0xcd299bc>
  b4:	5c657261 	0x5c657261
  b8:	6a6f7270 	0x6a6f7270
  bc:	5f32305f 	0x5f32305f
  c0:	74666f73 	jalx	199bdcc <MSKLOCy+0x9abdcc>
  c4:	65726177 	0x65726177
  c8:	554e4700 	bnel	t2,t6,11ccc <MSKSENSOR+0x1dcc>
  cc:	20534120 	addi	s3,v0,16672
  d0:	34322e32 	ori	s2,at,0x2e32
  d4:	0030392e 	0x30392e
  d8:	006f8001 	0x6f8001
  dc:	00020000 	sll	zero,v0,0x0
  e0:	00000028 	0x28
  e4:	00ce0104 	0xce0104
  e8:	00000000 	nop
  ec:	01988000 	0x1988000
  f0:	78658000 	andi.b	$w0,$w16,0x65
  f4:	74706563 	jalx	1c1958c <MSKLOCy+0xc2958c>
  f8:	736e6f69 	0x736e6f69
  fc:	4e00532e 	msub.ps	$f12,$f16,$f10,$f0
 100:	72505c3a 	0x72505c3a
 104:	63656a6f 	0x63656a6f
 108:	455c7374 	bc1any4f	$fcc7,1cedc <MSKSENSOR+0xcfdc>
 10c:	34354543 	ori	s5,at,0x4543
 110:	72505f30 	d32sll	xr12,xr7,xr1,xr4,9
 114:	305f6a6f 	andi	ra,v0,0x6a6f
 118:	72705c32 	0x72705c32
 11c:	305f6a6f 	andi	ra,v0,0x6a6f
 120:	6f735f32 	0x6f735f32
 124:	61777466 	0x61777466
 128:	705c6572 	0x705c6572
 12c:	5f6a6f72 	0x5f6a6f72
 130:	735f3230 	d32sll	xr8,xr12,xr12,xr7,13
 134:	7774666f 	jalx	dd199bc <MSKLOCy+0xcd299bc>
 138:	00657261 	0x657261
 13c:	20554e47 	addi	s5,v0,20039
 140:	32205341 	andi	zero,s1,0x5341
 144:	2e34322e 	sltiu	s4,s1,12846
 148:	01003039 	0x1003039
 14c:	00006a80 	sll	t5,zero,0xa
 150:	3c000200 	lui	zero,0x200
 154:	04000000 	bltz	zero,158 <MSKBOTINFO+0x59>
 158:	00011b01 	0x11b01
 15c:	00020000 	sll	zero,v0,0x0
 160:	00020480 	sll	zero,v0,0x12
 164:	6d756480 	0x6d756480
 168:	532e796d 	beql	t9,t6,1e720 <MSKSENSOR+0xe820>
 16c:	5c3a4e00 	0x5c3a4e00
 170:	6a6f7250 	0x6a6f7250
 174:	73746365 	s8sdi	xr13,k1,24,
 178:	4543455c 	0x4543455c
 17c:	5f303435 	0x5f303435
 180:	6a6f7250 	0x6a6f7250
 184:	5c32305f 	0x5c32305f
 188:	6a6f7270 	0x6a6f7270
 18c:	5f32305f 	0x5f32305f
 190:	74666f73 	jalx	199bdcc <MSKLOCy+0x9abdcc>
 194:	65726177 	0x65726177
 198:	6f72705c 	0x6f72705c
 19c:	32305f6a 	andi	s0,s1,0x5f6a
 1a0:	666f735f 	0x666f735f
 1a4:	72617774 	q16sll	xr13,xr13,xr5,xr8,9
 1a8:	4e470065 	c3	0x470065
 1ac:	53412055 	beql	k0,at,8304 <MSKBOTINFO+0x8205>
 1b0:	322e3220 	andi	t6,s1,0x3220
 1b4:	30392e34 	andi	t9,at,0x2e34
 1b8:	69800100 	0x69800100
 1bc:	02000000 	0x2000000
 1c0:	00005000 	sll	t2,zero,0x0
 1c4:	52010400 	beql	s0,at,11c8 <MSKBOTINFO+0x10c9>
 1c8:	04000001 	bltz	zero,1d0 <MSKBOTINFO+0xd1>
 1cc:	1c800002 	bgtz	a0,1d8 <MSKBOTINFO+0xd9>
 1d0:	6d80000b 	0x6d80000b
 1d4:	2e6e6961 	sltiu	t6,s3,26977
 1d8:	3a4e0053 	xori	t6,s2,0x53
 1dc:	6f72505c 	0x6f72505c
 1e0:	7463656a 	jalx	18d95a8 <MSKLOCy+0x8e95a8>
 1e4:	43455c73 	c0	0x1455c73
 1e8:	30343545 	andi	s4,at,0x3545
 1ec:	6f72505f 	0x6f72505f
 1f0:	32305f6a 	andi	s0,s1,0x5f6a
 1f4:	6f72705c 	0x6f72705c
 1f8:	32305f6a 	andi	s0,s1,0x5f6a
 1fc:	666f735f 	0x666f735f
 200:	72617774 	q16sll	xr13,xr13,xr5,xr8,9
 204:	72705c65 	s8sdi	xr1,s3,23,
 208:	305f6a6f 	andi	ra,v0,0x6a6f
 20c:	6f735f32 	0x6f735f32
 210:	61777466 	0x61777466
 214:	47006572 	bz.b	$w0,197e0 <MSKSENSOR+0x98e0>
 218:	4120554e 	0x4120554e
 21c:	2e322053 	sltiu	s2,s1,8275
 220:	392e3432 	xori	t6,t1,0x3432
 224:	80010030 	lb	at,48(zero)

Disassembly of section .debug_abbrev:

00000000 <.debug_abbrev>:
   0:	10001101 	b	4408 <MSKBOTINFO+0x4309>
   4:	12011106 	beq	s0,at,4420 <MSKBOTINFO+0x4321>
   8:	1b080301 	0x1b080301
   c:	13082508 	beq	t8,t0,9430 <MSKBOTINFO+0x9331>
  10:	00000005 	lsa	zero,zero,zero,0x1
  14:	10001101 	b	441c <MSKBOTINFO+0x431d>
  18:	12011106 	beq	s0,at,4434 <MSKBOTINFO+0x4335>
  1c:	1b080301 	0x1b080301
  20:	13082508 	beq	t8,t0,9444 <MSKBOTINFO+0x9345>
  24:	00000005 	lsa	zero,zero,zero,0x1
  28:	10001101 	b	4430 <MSKBOTINFO+0x4331>
  2c:	12011106 	beq	s0,at,4448 <MSKBOTINFO+0x4349>
  30:	1b080301 	0x1b080301
  34:	13082508 	beq	t8,t0,9458 <MSKBOTINFO+0x9359>
  38:	00000005 	lsa	zero,zero,zero,0x1
  3c:	10001101 	b	4444 <MSKBOTINFO+0x4345>
  40:	12011106 	beq	s0,at,445c <MSKBOTINFO+0x435d>
  44:	1b080301 	0x1b080301
  48:	13082508 	beq	t8,t0,946c <MSKBOTINFO+0x936d>
  4c:	00000005 	lsa	zero,zero,zero,0x1
  50:	10001101 	b	4458 <MSKBOTINFO+0x4359>
  54:	12011106 	beq	s0,at,4470 <MSKBOTINFO+0x4371>
  58:	1b080301 	0x1b080301
  5c:	13082508 	beq	t8,t0,9480 <MSKBOTINFO+0x9381>
  60:	00000005 	lsa	zero,zero,zero,0x1

Disassembly of section .debug_line:

00000000 <.debug_line>:
   0:	00000044 	0x44
   4:	001d0002 	srl	zero,sp,0x0
   8:	01010000 	0x1010000
   c:	000d0efb 	0xd0efb
  10:	01010101 	0x1010101
  14:	01000000 	0x1000000
  18:	00010000 	sll	zero,at,0x0
  1c:	30747263 	andi	s4,v1,0x7263
  20:	0000532e 	0x532e
  24:	00000000 	nop
  28:	01440205 	0x1440205
  2c:	0f039fc0 	jal	c0e7f00 <MSKLOCy+0xb0f7f00>
  30:	84844c01 	lh	a0,19457(a0)
  34:	4b848383 	c2	0x1848383
  38:	4e4c8513 	c3	0x4c8513
  3c:	4d4b4b4b 	0x4d4b4b4b
  40:	024b8583 	0x24b8583
  44:	01010008 	0x1010008
  48:	00000082 	srl	zero,zero,0x2
  4c:	001d0002 	srl	zero,sp,0x0
  50:	01010000 	0x1010000
  54:	000d0efb 	0xd0efb
  58:	01010101 	0x1010101
  5c:	01000000 	0x1000000
  60:	00010000 	sll	zero,at,0x0
  64:	746f6f62 	jalx	1bdbd88 <MSKLOCy+0xbebd88>
  68:	0000532e 	0x532e
  6c:	00000000 	nop
  70:	00000205 	0x205
  74:	13039fc0 	beq	t8,v1,fffe7f78 <MSKLOCx+0xfe7f78>
  78:	4d835101 	0x4d835101
  7c:	4a0a034d 	c2	0xa034d
  80:	4d4b4b4b 	0x4d4b4b4b
  84:	4b4b4b4b 	c2	0x14b4b4b
  88:	4b4d4b4b 	c2	0x14d4b4b
  8c:	4c4b4b4b 	0x4c4b4b4b
  90:	4b4b514b 	c2	0x14b514b
  94:	4c4b4c4b 	0x4c4b4c4b
  98:	4b4c4b4b 	c2	0x14c4b4b
  9c:	4b4c4b4b 	c2	0x14c4b4b
  a0:	4b4b4b4f 	c2	0x14b4b4f
  a4:	4b4a0c03 	c2	0x14a0c03
  a8:	834c4b4b 	lb	t4,19275(k0)
  ac:	4b4b504b 	c2	0x14b504b
  b0:	4c4b4c4b 	0x4c4b4c4b
  b4:	4b4c4b4b 	c2	0x14c4b4b
  b8:	4b4c4b4b 	c2	0x14c4b4b
  bc:	4b4b4f4b 	c2	0x14b4f4b
  c0:	4c834f4b 	0x4c834f4b
  c4:	504e4b83 	beql	v0,t6,12ed4 <MSKSENSOR+0x2fd4>
  c8:	0004024b 	0x4024b
  cc:	00490101 	0x490101
  d0:	00020000 	sll	zero,v0,0x0
  d4:	00000023 	negu	zero,zero
  d8:	0efb0101 	jal	bec0404 <MSKLOCy+0xaed0404>
  dc:	0101000d 	break	0x101
  e0:	00000101 	0x101
  e4:	00000100 	sll	zero,zero,0x4
  e8:	78650001 	bmnzi.b	$w0,$w0,0x65
  ec:	74706563 	jalx	1c1958c <MSKLOCy+0xc2958c>
  f0:	736e6f69 	0x736e6f69
  f4:	0000532e 	0x532e
  f8:	00000000 	nop
  fc:	00000205 	0x205
 100:	2c038000 	sltiu	v1,zero,-32768
 104:	02838301 	0x2838301
 108:	83831770 	lb	v1,6000(gp)
 10c:	83177002 	lb	s7,28674(t8)
 110:	17700283 	bne	k1,s0,b20 <MSKBOTINFO+0xa21>
 114:	08028383 	j	a0e0c <__memory_size+0x8160c>
 118:	33010100 	andi	at,t8,0x100
 11c:	02000000 	0x2000000
 120:	00001e00 	sll	v1,zero,0x18
 124:	fb010100 	sdc2	$1,256(t8)
 128:	01000d0e 	0x1000d0e
 12c:	00010101 	0x10101
 130:	00010000 	sll	zero,at,0x0
 134:	64000100 	0x64000100
 138:	796d6d75 	0x796d6d75
 13c:	0000532e 	0x532e
 140:	00000000 	nop
 144:	02000205 	0x2000205
 148:	3a038000 	xori	v1,s0,0x8000
 14c:	00040201 	0x40201
 150:	01fc0101 	0x1fc0101
 154:	00020000 	sll	zero,v0,0x0
 158:	0000001d 	0x1d
 15c:	0efb0101 	jal	bec0404 <MSKLOCy+0xaed0404>
 160:	0101000d 	break	0x101
 164:	00000101 	0x101
 168:	00000100 	sll	zero,zero,0x4
 16c:	616d0001 	0x616d0001
 170:	532e6e69 	beql	t9,t6,1bb18 <MSKSENSOR+0xbc18>
 174:	00000000 	nop
 178:	02050000 	0x2050000
 17c:	80000204 	lb	zero,516(zero)
 180:	0102a303 	0x102a303
 184:	834b134b 	lb	t3,4939(k0)
 188:	83834b83 	lb	v1,19331(gp)
 18c:	83138313 	lb	s3,-31981(t8)
 190:	83854b4b 	lb	a1,19275(gp)
 194:	8313838a 	lb	s3,-31862(t8)
 198:	1383854b 	beq	gp,v1,fffe16c8 <MSKLOCx+0xfe16c8>
 19c:	4b834cbb 	c2	0x1834cbb
 1a0:	4b4c834d 	c2	0x14c834d
 1a4:	844b4b84 	lh	t3,19332(v0)
 1a8:	4b844b4b 	c2	0x1844b4b
 1ac:	1383844b 	beq	gp,v1,fffe12dc <MSKLOCx+0xfe12dc>
 1b0:	14831383 	bne	a0,v1,4fc0 <MSKBOTINFO+0x4ec1>
 1b4:	83834bbb 	lb	v1,19387(gp)
 1b8:	144b834c 	bne	v0,t3,fffe0eec <MSKLOCx+0xfe0eec>
 1bc:	03834d83 	0x3834d83
 1c0:	83834a10 	lb	v1,18960(gp)
 1c4:	4b83834b 	c2	0x183834b
 1c8:	83134b4b 	lb	s3,19275(t8)
 1cc:	834a0b03 	lb	t2,2819(k0)
 1d0:	4b4b4b4b 	c2	0x14b4b4b
 1d4:	4b4b4b4b 	c2	0x14b4b4b
 1d8:	4b4b4b4b 	c2	0x14b4b4b
 1dc:	4b4b4b4b 	c2	0x14b4b4b
 1e0:	4b4b4b4b 	c2	0x14b4b4b
 1e4:	4b4b4b4b 	c2	0x14b4b4b
 1e8:	4b4b4b4b 	c2	0x14b4b4b
 1ec:	4b4b4b4b 	c2	0x14b4b4b
 1f0:	4b4b4b4b 	c2	0x14b4b4b
 1f4:	4b4b4b4b 	c2	0x14b4b4b
 1f8:	4b4b4b4b 	c2	0x14b4b4b
 1fc:	83134b4b 	lb	s3,19275(t8)
 200:	834a0a03 	lb	t2,2563(k0)
 204:	134b4b4b 	beq	k0,t3,12f34 <MSKSENSOR+0x3034>
 208:	4b835183 	c2	0x1835183
 20c:	4b4b4b4b 	c2	0x14b4b4b
 210:	4b4b4b4b 	c2	0x14b4b4b
 214:	4b4b4b4b 	c2	0x14b4b4b
 218:	4b4b4b4b 	c2	0x14b4b4b
 21c:	4b4b4b4b 	c2	0x14b4b4b
 220:	4b4b4b4b 	c2	0x14b4b4b
 224:	4b4b4b4b 	c2	0x14b4b4b
 228:	4b4b4b4b 	c2	0x14b4b4b
 22c:	4b4b4b4b 	c2	0x14b4b4b
 230:	4b4b4b4b 	c2	0x14b4b4b
 234:	4b4b4b4b 	c2	0x14b4b4b
 238:	0383134b 	0x383134b
 23c:	4b834a0a 	c2	0x1834a0a
 240:	83134b4b 	lb	s3,19275(t8)
 244:	834a0c03 	lb	t2,3075(k0)
 248:	4c831383 	0x4c831383
 24c:	83528383 	lb	s2,-31869(k0)
 250:	4b83844b 	c2	0x183844b
 254:	83134b4b 	lb	s3,19275(t8)
 258:	4b4bbb4c 	c2	0x14bbb4c
 25c:	4c83134b 	0x4c83134b
 260:	4b4b4bbb 	c2	0x14b4bbb
 264:	bb4c8313 	swr	t4,-31981(k0)
 268:	134b4b4b 	beq	k0,t3,12f98 <MSKSENSOR+0x3098>
 26c:	4bbb4c83 	c2	0x1bb4c83
 270:	83134b4b 	lb	s3,19275(t8)
 274:	4b4bbb4c 	c2	0x14bbb4c
 278:	4c83134b 	0x4c83134b
 27c:	4b4b4bbb 	c2	0x14b4bbb
 280:	4b4d8313 	c2	0x14d8313
 284:	83834c4b 	lb	v1,19531(gp)
 288:	83528383 	lb	s2,-31869(k0)
 28c:	4c4b4b4b 	0x4c4b4b4b
 290:	4b4b4b83 	c2	0x14b4b83
 294:	8383834b 	lb	v1,-31925(gp)
 298:	10038383 	beq	zero,v1,fffe10a8 <MSKLOCx+0xfe10a8>
 29c:	8386834a 	lb	a2,-31926(gp)
 2a0:	83835183 	lb	v1,20867(gp)
 2a4:	50834b4b 	beql	a0,v1,12fd4 <MSKSENSOR+0x30d4>
 2a8:	4b834b83 	c2	0x1834b83
 2ac:	85ad084b 	lh	t5,2123(t5)
 2b0:	83838583 	lb	v1,-31357(gp)
 2b4:	52834b4b 	beql	s4,v1,12fe4 <MSKSENSOR+0x30e4>
 2b8:	4b4b8383 	c2	0x14b8383
 2bc:	83834f83 	lb	v1,20355(gp)
 2c0:	52834b4b 	beql	s4,v1,12ff0 <MSKSENSOR+0x30f0>
 2c4:	084b4b83 	j	12d2e0c <MSKLOCy+0x2e2e0c>
 2c8:	858385ad 	lh	v1,-31315(t4)
 2cc:	83838583 	lb	v1,-31357(gp)
 2d0:	17834b4b 	bne	gp,v1,13000 <MSKSENSOR+0x3100>
 2d4:	83838383 	lb	v1,-31869(gp)
 2d8:	4d835283 	0x4d835283
 2dc:	4b4b8383 	c2	0x14b8383
 2e0:	83834f83 	lb	v1,20355(gp)
 2e4:	4b4b8583 	c2	0x14b8583
 2e8:	1a8383bb 	0x1a8383bb
 2ec:	838383bb 	lb	v1,-31813(gp)
 2f0:	17834b4b 	bne	gp,v1,13020 <MSKSENSOR+0x3120>
 2f4:	838583bb 	lb	a1,-31813(gp)
 2f8:	4b4b8583 	c2	0x14b8583
 2fc:	834b874b 	lb	t3,-30901(k0)
 300:	50838383 	beql	a0,v1,fffe1110 <MSKLOCx+0xfe1110>
 304:	4d834b4b 	0x4d834b4b
 308:	4b838383 	c2	0x1838383
 30c:	1383144b 	beq	gp,v1,543c <MSKBOTINFO+0x533d>
 310:	13834b83 	beq	gp,v1,13120 <MSKSENSOR+0x3220>
 314:	4a0e0383 	c2	0xe0383
 318:	03831383 	0x3831383
 31c:	4b4d4a0b 	c2	0x14d4a0b
 320:	4b4d834b 	c2	0x14d834b
 324:	4b4d834b 	c2	0x14d834b
 328:	4b4d834b 	c2	0x14d834b
 32c:	134f834b 	beq	k0,t7,fffe105c <MSKLOCx+0xfe105c>
 330:	4a100383 	c2	0x100383
 334:	4b4b4d83 	c2	0x14b4d83
 338:	4c4b4b83 	0x4c4b4b83
 33c:	0a038313 	j	80e0c4c <MSKLOCy+0x70f0c4c>
 340:	4b4b4b4a 	c2	0x14b4b4a
 344:	11038313 	beq	t0,v1,fffe0f94 <MSKLOCx+0xfe0f94>
 348:	1383834a 	beq	gp,v1,fffe1074 <MSKLOCx+0xfe1074>
 34c:	00040283 	sra	zero,a0,0xa
 350:	Address 0x0000000000000350 is out of bounds.


Disassembly of section .pdr:

00000000 <.pdr>:
   0:	9fc00144 	0x9fc00144
	...
  20:	9fc00000 	0x9fc00000
	...
  40:	80000000 	lb	zero,0(zero)
	...
  60:	80000200 	lb	zero,512(zero)
	...
  80:	80000200 	lb	zero,512(zero)
	...
  a0:	80000200 	lb	zero,512(zero)
	...
  c0:	80000200 	lb	zero,512(zero)
	...
  e0:	80000200 	lb	zero,512(zero)
	...

Disassembly of section .gnu.attributes:

00000000 <.gnu.attributes>:
   0:	00000f41 	0xf41
   4:	756e6700 	jalx	5b99c00 <MSKLOCy+0x4ba9c00>
   8:	00070100 	sll	zero,a3,0x4
   c:	03040000 	0x3040000
